; Function Attrs: nounwind uwtable
define dso_local zeroext i1 @Curl_conn_cf_needs_flush(ptr noundef %0, ptr noundef %1) local_unnamed_addr #1 {
  %3 = alloca i32, align 4
  call void @llvm.lifetime.start.p0(i64 4, ptr nonnull %3) #12
  store i32 0, ptr %3, align 4, !tbaa !44
  %.not = icmp eq ptr %0, null
  br i1 %.not, label %12, label %4

4:                                                ; preds = %2
  %5 = load ptr, ptr %0, align 8, !tbaa !15
  %6 = getelementptr inbounds nuw i8, ptr %5, i64 112
  %7 = load ptr, ptr %6, align 8, !tbaa !50
  %8 = call i32 %7(ptr noundef nonnull %0, ptr noundef %1, i32 noundef 7, ptr noundef nonnull %3, ptr noundef null) #12
  %9 = icmp eq i32 %8, 0
  %.pre = load i32, ptr %3, align 4
  %10 = icmp ne i32 %.pre, 0
  %11 = select i1 %9, i1 %10, i1 false
  br label %12

12:                                               ; preds = %2, %4
  %not. = phi i1 [ %11, %4 ], [ false, %2 ]
  call void @llvm.lifetime.end.p0(i64 4, ptr nonnull %3) #12
  ret i1 %not.
}